; Function Attrs: nounwind uwtable
define void @Cnf_ManStop(ptr noundef captures(none) %0) local_unnamed_addr #0 {
  %2 = getelementptr inbounds nuw i8, ptr %0, i64 80
  %3 = load ptr, ptr %2, align 8, !tbaa !24
  %4 = getelementptr inbounds nuw i8, ptr %3, i64 8
  %5 = load ptr, ptr %4, align 8, !tbaa !23
  %.not.i = icmp eq ptr %5, null
  br i1 %.not.i, label %Vec_IntFree.exit, label %6

6:                                                ; preds = %1
  tail call void @free(ptr noundef nonnull %5) #16
  br label %Vec_IntFree.exit

Vec_IntFree.exit:                                 ; preds = %1, %6
  tail call void @free(ptr noundef nonnull %3) #16
  %7 = getelementptr inbounds nuw i8, ptr %0, i64 48
  %8 = load ptr, ptr %7, align 8, !tbaa !16
  %.not = icmp eq ptr %8, null
  br i1 %.not, label %10, label %9

9:                                                ; preds = %Vec_IntFree.exit
  tail call void @free(ptr noundef nonnull %8) #16
  store ptr null, ptr %7, align 8, !tbaa !16
  br label %10

10:                                               ; preds = %Vec_IntFree.exit, %9
  %11 = getelementptr inbounds nuw i8, ptr %0, i64 32
  %12 = load ptr, ptr %11, align 8, !tbaa !3
  tail call void @Aig_MmFlexStop(ptr noundef %12, i32 noundef 0) #16
  %13 = getelementptr inbounds nuw i8, ptr %0, i64 8
  %14 = load ptr, ptr %13, align 8, !tbaa !25
  %.not20 = icmp eq ptr %14, null
  br i1 %.not20, label %16, label %15

15:                                               ; preds = %10
  tail call void @free(ptr noundef nonnull %14) #16
  store ptr null, ptr %13, align 8, !tbaa !25
  br label %16

16:                                               ; preds = %10, %15
  %17 = getelementptr inbounds nuw i8, ptr %0, i64 16
  %18 = load ptr, ptr %17, align 8, !tbaa !26
  %19 = getelementptr inbounds nuw i8, ptr %18, i64 8
  %20 = load ptr, ptr %19, align 8, !tbaa !27
  %.not21 = icmp eq ptr %20, null
  br i1 %.not21, label %23, label %.thread

.thread:                                          ; preds = %16
  tail call void @free(ptr noundef nonnull %20) #16
  %21 = load ptr, ptr %17, align 8, !tbaa !26
  %22 = getelementptr inbounds nuw i8, ptr %21, i64 8
  store ptr null, ptr %22, align 8, !tbaa !27
  br label %23

23:                                               ; preds = %.thread, %16
  %24 = phi ptr [ %21, %.thread ], [ %18, %16 ]
  tail call void @free(ptr noundef nonnull %24) #16
  tail call void @free(ptr noundef nonnull %0) #16
  ret void
}